target datalayout = "e-m:e-p270:32:32-p271:32:32-p272:64:64-i64:64-i128:128-f80:128-n8:16:32:64-S128"
target triple = "x86_64-unknown-linux-gnu"

%"class.grpc_core::Duration" = type { i64 }
%"struct.std::_Rb_tree_header" = type { %"struct.std::_Rb_tree_node_base", i64 }
%"struct.std::_Rb_tree_node_base" = type { i32, ptr, ptr, ptr }
%"class.std::__cxx11::basic_string" = type { %"struct.std::__cxx11::basic_string<char>::_Alloc_hider", i64, %union.anon }
%"struct.std::__cxx11::basic_string<char>::_Alloc_hider" = type { ptr }
%union.anon = type { i64, [8 x i8] }
%"class.absl::lts_20230802::Status" = type { i64 }
%"struct.std::_Rb_tree_key_compare.80" = type { %"struct.std::less.81" }
%"struct.std::less.81" = type { i8 }
%"class.grpc_core::RefCount" = type { %"struct.std::atomic.118" }
%"struct.std::atomic.118" = type { %"struct.std::__atomic_base.119" }
%"struct.std::__atomic_base.119" = type { i64 }
%"class.grpc_core::RefCountedPtr.163" = type { ptr }
%"class.std::unique_ptr.164" = type { %"struct.std::__uniq_ptr_data.165" }
%"struct.std::__uniq_ptr_data.165" = type { %"class.std::__uniq_ptr_impl.166" }
%"class.std::__uniq_ptr_impl.166" = type { %"class.std::tuple.167" }
%"class.std::tuple.167" = type { %"struct.std::_Tuple_impl.168" }
%"struct.std::_Tuple_impl.168" = type { %"struct.std::_Head_base.171" }
%"struct.std::_Head_base.171" = type { ptr }
%"class.std::shared_ptr" = type { %"class.std::__shared_ptr" }
%"class.std::__shared_ptr" = type { ptr, %"class.std::__shared_count" }
%"class.std::__shared_count" = type { ptr }
%"class.std::unique_ptr.172" = type { %"struct.std::__uniq_ptr_data.173" }
%"struct.std::__uniq_ptr_data.173" = type { %"class.std::__uniq_ptr_impl.174" }
%"class.std::__uniq_ptr_impl.174" = type { %"class.std::tuple.175" }
%"class.std::tuple.175" = type { %"struct.std::_Tuple_impl.176" }
%"struct.std::_Tuple_impl.176" = type { %"struct.std::_Head_base.179" }
%"struct.std::_Head_base.179" = type { ptr }
%"class.grpc_core::ChannelArgs" = type { %"class.grpc_core::AVL" }
%"class.grpc_core::AVL" = type { %"class.grpc_core::RefCountedPtr.180" }
%"class.grpc_core::RefCountedPtr.180" = type { ptr }
%"class.grpc_core::(anonymous namespace)::PriorityLb" = type <{ %"class.grpc_core::LoadBalancingPolicy", %"class.grpc_core::Duration", %"class.grpc_core::ChannelArgs", %"class.grpc_core::RefCountedPtr.163", %"class.absl::lts_20230802::StatusOr.187", %"class.std::__cxx11::basic_string", i8, i8, [6 x i8], %"class.std::map.201", i32, [4 x i8] }>
%"class.grpc_core::LoadBalancingPolicy" = type { %"class.grpc_core::InternallyRefCounted", %"class.std::shared_ptr", ptr, %"class.std::unique_ptr.172", %"class.grpc_core::ChannelArgs" }
%"class.grpc_core::InternallyRefCounted" = type { %"class.grpc_core::Orphanable", %"class.grpc_core::RefCount" }
%"class.grpc_core::Orphanable" = type { ptr }
%"class.absl::lts_20230802::StatusOr.187" = type { %"class.absl::lts_20230802::internal_statusor::StatusOrData.188" }
%"class.absl::lts_20230802::internal_statusor::StatusOrData.188" = type { %union.anon.189, %union.anon.190 }
%union.anon.189 = type { %"class.absl::lts_20230802::Status" }
%union.anon.190 = type { %"class.std::map.191" }
%"class.std::map.191" = type { %"class.std::_Rb_tree.192" }
%"class.std::_Rb_tree.192" = type { %"struct.std::_Rb_tree<grpc_core::RefCountedStringValue, std::pair<const grpc_core::RefCountedStringValue, std::shared_ptr<grpc_core::EndpointAddressesIterator>>, std::_Select1st<std::pair<const grpc_core::RefCountedStringValue, std::shared_ptr<grpc_core::EndpointAddressesIterator>>>, grpc_core::RefCountedStringValueLessThan>::_Rb_tree_impl" }
%"struct.std::_Rb_tree<grpc_core::RefCountedStringValue, std::pair<const grpc_core::RefCountedStringValue, std::shared_ptr<grpc_core::EndpointAddressesIterator>>, std::_Select1st<std::pair<const grpc_core::RefCountedStringValue, std::shared_ptr<grpc_core::EndpointAddressesIterator>>>, grpc_core::RefCountedStringValueLessThan>::_Rb_tree_impl" = type { %"struct.std::_Rb_tree_key_compare.196", %"struct.std::_Rb_tree_header" }
%"struct.std::_Rb_tree_key_compare.196" = type { %"struct.grpc_core::RefCountedStringValueLessThan" }
%"struct.grpc_core::RefCountedStringValueLessThan" = type { i8 }
%"class.std::map.201" = type { %"class.std::_Rb_tree.202" }
%"class.std::_Rb_tree.202" = type { %"struct.std::_Rb_tree<std::__cxx11::basic_string<char>, std::pair<const std::__cxx11::basic_string<char>, std::unique_ptr<grpc_core::(anonymous namespace)::PriorityLb::ChildPriority, grpc_core::OrphanableDelete>>, std::_Select1st<std::pair<const std::__cxx11::basic_string<char>, std::unique_ptr<grpc_core::(anonymous namespace)::PriorityLb::ChildPriority, grpc_core::OrphanableDelete>>>, std::less<std::__cxx11::basic_string<char>>>::_Rb_tree_impl" }
%"struct.std::_Rb_tree<std::__cxx11::basic_string<char>, std::pair<const std::__cxx11::basic_string<char>, std::unique_ptr<grpc_core::(anonymous namespace)::PriorityLb::ChildPriority, grpc_core::OrphanableDelete>>, std::_Select1st<std::pair<const std::__cxx11::basic_string<char>, std::unique_ptr<grpc_core::(anonymous namespace)::PriorityLb::ChildPriority, grpc_core::OrphanableDelete>>>, std::less<std::__cxx11::basic_string<char>>>::_Rb_tree_impl" = type { %"struct.std::_Rb_tree_key_compare.80", %"struct.std::_Rb_tree_header" }
%"class.std::unique_ptr.231" = type { %"struct.std::__uniq_ptr_data.232" }
%"struct.std::__uniq_ptr_data.232" = type { %"class.std::__uniq_ptr_impl.233" }
%"class.std::__uniq_ptr_impl.233" = type { %"class.std::tuple.234" }
%"class.std::tuple.234" = type { %"struct.std::_Tuple_impl.235" }
%"struct.std::_Tuple_impl.235" = type { %"struct.std::_Head_base.236" }
%"struct.std::_Head_base.236" = type { ptr }
%"class.grpc_core::RefCountedPtr.249" = type { ptr }
%"class.grpc_core::(anonymous namespace)::PriorityLb::ChildPriority" = type { %"class.grpc_core::InternallyRefCounted.228", %"class.grpc_core::RefCountedPtr.229", %"class.std::__cxx11::basic_string", i8, %"class.std::unique_ptr.164", i32, %"class.absl::lts_20230802::Status", %"class.grpc_core::RefCountedPtr.230", i8, %"class.std::unique_ptr.231", %"class.std::unique_ptr.237" }
%"class.grpc_core::InternallyRefCounted.228" = type { %"class.grpc_core::Orphanable", %"class.grpc_core::RefCount" }
%"class.grpc_core::RefCountedPtr.229" = type { ptr }
%"class.grpc_core::RefCountedPtr.230" = type { ptr }
%"class.std::unique_ptr.237" = type { %"struct.std::__uniq_ptr_data.238" }
%"struct.std::__uniq_ptr_data.238" = type { %"class.std::__uniq_ptr_impl.239" }
%"class.std::__uniq_ptr_impl.239" = type { %"class.std::tuple.240" }
%"class.std::tuple.240" = type { %"struct.std::_Tuple_impl.241" }
%"struct.std::_Tuple_impl.241" = type { %"struct.std::_Head_base.242" }
%"struct.std::_Head_base.242" = type { ptr }
%"class.grpc_core::(anonymous namespace)::PriorityLb::ChildPriority::Helper" = type { %"class.grpc_core::LoadBalancingPolicy::DelegatingChannelControlHelper", %"class.grpc_core::RefCountedPtr.249" }
%"class.grpc_core::LoadBalancingPolicy::DelegatingChannelControlHelper" = type { %"class.grpc_core::LoadBalancingPolicy::ChannelControlHelper" }
%"class.grpc_core::LoadBalancingPolicy::ChannelControlHelper" = type { ptr }

; Function Attrs: mustprogress nounwind uwtable
define linkonce_odr void @_ZN9grpc_core13RefCountedPtrINS_19LoadBalancingPolicy16SubchannelPickerEEC2EOS3_(ptr noundef nonnull align 8 dereferenceable(8) %this, ptr noundef nonnull align 8 dereferenceable(8) %other) unnamed_addr #5 comdat align 2 {
entry:
  %this.addr = alloca ptr, align 8
  %other.addr = alloca ptr, align 8
  store ptr %this, ptr %this.addr, align 8
  store ptr %other, ptr %other.addr, align 8
  %this1 = load ptr, ptr %this.addr, align 8
  %value_ = getelementptr inbounds %"class.grpc_core::RefCountedPtr.230", ptr %this1, i32 0, i32 0
  store ptr null, ptr %value_, align 8
  %0 = load ptr, ptr %other.addr, align 8
  %value_2 = getelementptr inbounds %"class.grpc_core::RefCountedPtr.230", ptr %0, i32 0, i32 0
  %1 = load ptr, ptr %value_2, align 8
  %value_3 = getelementptr inbounds %"class.grpc_core::RefCountedPtr.230", ptr %this1, i32 0, i32 0
  store ptr %1, ptr %value_3, align 8
  %2 = load ptr, ptr %other.addr, align 8
  %value_4 = getelementptr inbounds %"class.grpc_core::RefCountedPtr.230", ptr %2, i32 0, i32 0
  store ptr null, ptr %value_4, align 8
  ret void
}

; Function Attrs: mustprogress nounwind uwtable
define internal noundef ptr @_ZNK9grpc_core13RefCountedPtrINS_12_GLOBAL__N_110PriorityLbEEptEv(ptr noundef nonnull align 8 dereferenceable(8) %this) #5 align 2 {
entry:
  %this.addr = alloca ptr, align 8
  store ptr %this, ptr %this.addr, align 8
  %this1 = load ptr, ptr %this.addr, align 8
  %value_ = getelementptr inbounds %"class.grpc_core::RefCountedPtr.229", ptr %this1, i32 0, i32 0
  %0 = load ptr, ptr %value_, align 8
  ret ptr %0
}

; Function Attrs: mustprogress nounwind uwtable
define internal noundef ptr @_ZNK9grpc_core13RefCountedPtrINS_12_GLOBAL__N_110PriorityLb13ChildPriorityEEptEv(ptr noundef nonnull align 8 dereferenceable(8) %this) #5 align 2 {
entry:
  %this.addr = alloca ptr, align 8
  store ptr %this, ptr %this.addr, align 8
  %this1 = load ptr, ptr %this.addr, align 8
  %value_ = getelementptr inbounds %"class.grpc_core::RefCountedPtr.249", ptr %this1, i32 0, i32 0
  %0 = load ptr, ptr %value_, align 8
  ret ptr %0
}

; Function Attrs: mustprogress uwtable
define internal void @_ZN9grpc_core12_GLOBAL__N_110PriorityLb13ChildPriority6Helper11UpdateStateE23grpc_connectivity_stateRKN4absl12lts_202308026StatusENS_13RefCountedPtrINS_19LoadBalancingPolicy16SubchannelPickerEEE(ptr noundef nonnull align 8 dereferenceable(16) %this, i32 noundef %state, ptr noundef nonnull align 8 dereferenceable(8) %status, ptr noundef %picker) unnamed_addr #4 align 2 personality ptr @__gxx_personality_v0 {
entry:
  %this.addr = alloca ptr, align 8
  %state.addr = alloca i32, align 4
  %status.addr = alloca ptr, align 8
  %picker.indirect_addr = alloca ptr, align 8
  %agg.tmp = alloca %"class.grpc_core::RefCountedPtr.230", align 8
  %exn.slot = alloca ptr, align 8
  %ehselector.slot = alloca i32, align 4
  store ptr %this, ptr %this.addr, align 8
  store i32 %state, ptr %state.addr, align 4
  store ptr %status, ptr %status.addr, align 8
  store ptr %picker, ptr %picker.indirect_addr, align 8
  %this1 = load ptr, ptr %this.addr, align 8
  %priority_ = getelementptr inbounds %"class.grpc_core::(anonymous namespace)::PriorityLb::ChildPriority::Helper", ptr %this1, i32 0, i32 1
  %call = call noundef ptr @_ZNK9grpc_core13RefCountedPtrINS_12_GLOBAL__N_110PriorityLb13ChildPriorityEEptEv(ptr noundef nonnull align 8 dereferenceable(8) %priority_)
  %priority_policy_ = getelementptr inbounds %"class.grpc_core::(anonymous namespace)::PriorityLb::ChildPriority", ptr %call, i32 0, i32 1
  %call2 = call noundef ptr @_ZNK9grpc_core13RefCountedPtrINS_12_GLOBAL__N_110PriorityLbEEptEv(ptr noundef nonnull align 8 dereferenceable(8) %priority_policy_)
  %shutting_down_ = getelementptr inbounds %"class.grpc_core::(anonymous namespace)::PriorityLb", ptr %call2, i32 0, i32 6
  %0 = load i8, ptr %shutting_down_, align 8
  %tobool = trunc i8 %0 to i1
  br i1 %tobool, label %if.then, label %if.end

if.then:                                          ; preds = %entry
  br label %return

if.end:                                           ; preds = %entry
  %priority_3 = getelementptr inbounds %"class.grpc_core::(anonymous namespace)::PriorityLb::ChildPriority::Helper", ptr %this1, i32 0, i32 1
  %call4 = call noundef ptr @_ZNK9grpc_core13RefCountedPtrINS_12_GLOBAL__N_110PriorityLb13ChildPriorityEEptEv(ptr noundef nonnull align 8 dereferenceable(8) %priority_3)
  %1 = load i32, ptr %state.addr, align 4
  %2 = load ptr, ptr %status.addr, align 8
  call void @_ZN9grpc_core13RefCountedPtrINS_19LoadBalancingPolicy16SubchannelPickerEEC2EOS3_(ptr noundef nonnull align 8 dereferenceable(8) %agg.tmp, ptr noundef nonnull align 8 dereferenceable(8) %picker) #3
  invoke void @_ZN9grpc_core12_GLOBAL__N_110PriorityLb13ChildPriority31OnConnectivityStateUpdateLockedE23grpc_connectivity_stateRKN4absl12lts_202308026StatusENS_13RefCountedPtrINS_19LoadBalancingPolicy16SubchannelPickerEEE(ptr noundef nonnull align 8 dereferenceable(120) %call4, i32 noundef %1, ptr noundef nonnull align 8 dereferenceable(8) %2, ptr noundef %agg.tmp)
          to label %invoke.cont unwind label %lpad

invoke.cont:                                      ; preds = %if.end
  call void @_ZN9grpc_core13RefCountedPtrINS_19LoadBalancingPolicy16SubchannelPickerEED2Ev(ptr noundef nonnull align 8 dereferenceable(8) %agg.tmp) #3
  br label %return

return:                                           ; preds = %invoke.cont, %if.then
  ret void

lpad:                                             ; preds = %if.end
  %3 = landingpad { ptr, i32 }
          cleanup
  %4 = extractvalue { ptr, i32 } %3, 0
  store ptr %4, ptr %exn.slot, align 8
  %5 = extractvalue { ptr, i32 } %3, 1
  store i32 %5, ptr %ehselector.slot, align 4
  call void @_ZN9grpc_core13RefCountedPtrINS_19LoadBalancingPolicy16SubchannelPickerEED2Ev(ptr noundef nonnull align 8 dereferenceable(8) %agg.tmp) #3
  br label %eh.resume

eh.resume:                                        ; preds = %lpad
  %exn = load ptr, ptr %exn.slot, align 8
  %sel = load i32, ptr %ehselector.slot, align 4
  %lpad.val = insertvalue { ptr, i32 } poison, ptr %exn, 0
  %lpad.val5 = insertvalue { ptr, i32 } %lpad.val, i32 %sel, 1
  resume { ptr, i32 } %lpad.val5
}