; Function Attrs: mustprogress uwtable
define internal void @_ZN9grpc_core12_GLOBAL__N_110PriorityLb13ChildPriority6Helper11UpdateStateE23grpc_connectivity_stateRKN4absl12lts_202308026StatusENS_13RefCountedPtrINS_19LoadBalancingPolicy16SubchannelPickerEEE(ptr nocapture noundef nonnull readonly align 8 dereferenceable(16) %this, i32 noundef %state, ptr noundef nonnull align 8 dereferenceable(8) %status, ptr nocapture noundef %picker) unnamed_addr #3 align 2 personality ptr @__gxx_personality_v0 {
entry:
  %agg.tmp = alloca %"class.grpc_core::RefCountedPtr.230", align 8
  %priority_ = getelementptr inbounds i8, ptr %this, i64 8
  %priority_.val1 = load ptr, ptr %priority_, align 8
  %priority_policy_ = getelementptr inbounds i8, ptr %priority_.val1, i64 16
  %priority_policy_.val = load ptr, ptr %priority_policy_, align 8
  %shutting_down_ = getelementptr inbounds i8, ptr %priority_policy_.val, i64 168
  %0 = load i8, ptr %shutting_down_, align 8
  %1 = and i8 %0, 1
  %tobool.not = icmp eq i8 %1, 0
  br i1 %tobool.not, label %if.end, label %return

if.end:                                           ; preds = %entry
  %2 = load ptr, ptr %picker, align 8
  store ptr %2, ptr %agg.tmp, align 8
  store ptr null, ptr %picker, align 8
  invoke fastcc void @_ZN9grpc_core12_GLOBAL__N_110PriorityLb13ChildPriority31OnConnectivityStateUpdateLockedE23grpc_connectivity_stateRKN4absl12lts_202308026StatusENS_13RefCountedPtrINS_19LoadBalancingPolicy16SubchannelPickerEEE(ptr noundef nonnull align 8 dereferenceable(120) %priority_.val1, i32 noundef %state, ptr noundef nonnull align 8 dereferenceable(8) %status, ptr noundef nonnull %agg.tmp)
          to label %invoke.cont unwind label %lpad

invoke.cont:                                      ; preds = %if.end
  %3 = load ptr, ptr %agg.tmp, align 8
  %cmp.not.i = icmp eq ptr %3, null
  br i1 %cmp.not.i, label %return, label %if.then.i

if.then.i:                                        ; preds = %invoke.cont
  %refs_.i.i = getelementptr inbounds i8, ptr %3, i64 8
  %4 = atomicrmw add ptr %refs_.i.i, i64 -4294967295 acq_rel, align 8
  %shr.i.mask.i.i = and i64 %4, -4294967296
  %cmp.i.i = icmp eq i64 %shr.i.mask.i.i, 4294967296
  br i1 %cmp.i.i, label %if.then.i.i, label %if.end.i.i

if.then.i.i:                                      ; preds = %if.then.i
  %vtable.i.i = load ptr, ptr %3, align 8
  %5 = load ptr, ptr %vtable.i.i, align 8
  invoke void %5(ptr noundef nonnull align 8 dereferenceable(8) %3)
          to label %if.end.i.i unwind label %terminate.lpad.i

if.end.i.i:                                       ; preds = %if.then.i.i, %if.then.i
  %6 = atomicrmw sub ptr %refs_.i.i, i64 1 acq_rel, align 8
  %cmp.not.i.i.i = icmp eq i64 %6, 1
  br i1 %cmp.not.i.i.i, label %delete.notnull.i.i.i, label %return

delete.notnull.i.i.i:                             ; preds = %if.end.i.i
  %vtable.i.i.i = load ptr, ptr %3, align 8
  %vfn.i.i.i = getelementptr inbounds i8, ptr %vtable.i.i.i, i64 16
  %7 = load ptr, ptr %vfn.i.i.i, align 8
  tail call void %7(ptr noundef nonnull align 8 dereferenceable(16) %3) #26
  br label %return

terminate.lpad.i:                                 ; preds = %if.then.i.i
  %8 = landingpad { ptr, i32 }
          catch ptr null
  %9 = extractvalue { ptr, i32 } %8, 0
  tail call void @__clang_call_terminate(ptr %9) #27
  unreachable

return:                                           ; preds = %delete.notnull.i.i.i, %if.end.i.i, %invoke.cont, %entry
  ret void

lpad:                                             ; preds = %if.end
  %10 = landingpad { ptr, i32 }
          cleanup
  call void @_ZN9grpc_core13RefCountedPtrINS_19LoadBalancingPolicy16SubchannelPickerEED2Ev(ptr noundef nonnull align 8 dereferenceable(8) %agg.tmp) #26
  resume { ptr, i32 } %10
}